target datalayout = "e-m:e-p270:32:32-p271:32:32-p272:64:64-i64:64-i128:128-f80:128-n8:16:32:64-S128"
target triple = "x86_64-unknown-linux-gnu"

%"class.std::__cxx11::basic_string" = type { %"struct.std::__cxx11::basic_string<char>::_Alloc_hider", i64, %union.anon }
%"struct.std::__cxx11::basic_string<char>::_Alloc_hider" = type { ptr }
%union.anon = type { i64, [8 x i8] }

@.str = private unnamed_addr constant [6 x i8] c"XGL: \00", align 1
@.str.77 = private unnamed_addr constant [46 x i8] c"unexpected EOL, failed to parse index element\00", align 1
@.str.78 = private unnamed_addr constant [26 x i8] c"failed to read float text\00", align 1

; Function Attrs: mustprogress nounwind uwtable
define linkonce_odr hidden noundef zeroext i1 @_ZN6Assimp9IsLineEndIcEEbT_(i8 noundef signext %in) #0 comdat {
entry:
  %in.addr = alloca i8, align 1
  store i8 %in, ptr %in.addr, align 1
  %0 = load i8, ptr %in.addr, align 1
  %conv = sext i8 %0 to i32
  %cmp = icmp eq i32 %conv, 13
  br i1 %cmp, label %lor.end, label %lor.lhs.false

lor.lhs.false:                                    ; preds = %entry
  %1 = load i8, ptr %in.addr, align 1
  %conv1 = sext i8 %1 to i32
  %cmp2 = icmp eq i32 %conv1, 10
  br i1 %cmp2, label %lor.end, label %lor.lhs.false3

lor.lhs.false3:                                   ; preds = %lor.lhs.false
  %2 = load i8, ptr %in.addr, align 1
  %conv4 = sext i8 %2 to i32
  %cmp5 = icmp eq i32 %conv4, 0
  br i1 %cmp5, label %lor.end, label %lor.rhs

lor.rhs:                                          ; preds = %lor.lhs.false3
  %3 = load i8, ptr %in.addr, align 1
  %conv6 = sext i8 %3 to i32
  %cmp7 = icmp eq i32 %conv6, 12
  br label %lor.end

lor.end:                                          ; preds = %lor.rhs, %lor.lhs.false3, %lor.lhs.false, %entry
  %4 = phi i1 [ true, %lor.lhs.false3 ], [ true, %lor.lhs.false ], [ true, %entry ], [ %cmp7, %lor.rhs ]
  ret i1 %4
}

; Function Attrs: mustprogress nounwind uwtable
define hidden noundef ptr @_ZN6Assimp12LogFunctionsINS_11XGLImporterEE6PrefixEv() #0 align 2 {
entry:
  ret ptr @.str
}

; Function Attrs: mustprogress uwtable
define linkonce_odr hidden noundef zeroext i1 @_ZN6Assimp10SkipSpacesIcEEbPKT_PS3_(ptr noundef %in, ptr noundef %out) #2 comdat {
entry:
  %in.addr = alloca ptr, align 8
  %out.addr = alloca ptr, align 8
  store ptr %in, ptr %in.addr, align 8
  store ptr %out, ptr %out.addr, align 8
  br label %while.cond

while.cond:                                       ; preds = %while.body, %entry
  %0 = load ptr, ptr %in.addr, align 8
  %1 = load i8, ptr %0, align 1
  %conv = sext i8 %1 to i32
  %cmp = icmp eq i32 %conv, 32
  br i1 %cmp, label %lor.end, label %lor.rhs

lor.rhs:                                          ; preds = %while.cond
  %2 = load ptr, ptr %in.addr, align 8
  %3 = load i8, ptr %2, align 1
  %conv1 = sext i8 %3 to i32
  %cmp2 = icmp eq i32 %conv1, 9
  br label %lor.end

lor.end:                                          ; preds = %lor.rhs, %while.cond
  %4 = phi i1 [ true, %while.cond ], [ %cmp2, %lor.rhs ]
  br i1 %4, label %while.body, label %while.end

while.body:                                       ; preds = %lor.end
  %5 = load ptr, ptr %in.addr, align 8
  %incdec.ptr = getelementptr inbounds i8, ptr %5, i32 1
  store ptr %incdec.ptr, ptr %in.addr, align 8
  br label %while.cond, !llvm.loop !54

while.end:                                        ; preds = %lor.end
  %6 = load ptr, ptr %in.addr, align 8
  %7 = load ptr, ptr %out.addr, align 8
  store ptr %6, ptr %7, align 8
  %8 = load ptr, ptr %in.addr, align 8
  %9 = load i8, ptr %8, align 1
  %call = call noundef zeroext i1 @_ZN6Assimp9IsLineEndIcEEbT_(i8 noundef signext %9)
  %lnot = xor i1 %call, true
  ret i1 %lnot
}

; Function Attrs: mustprogress uwtable
define linkonce_odr hidden void @_ZN6Assimp12LogFunctionsINS_11XGLImporterEE8LogErrorIJRA26_KcEEEvDpOT_(ptr noundef nonnull align 1 dereferenceable(26) %args) #2 comdat align 2 {
entry:
  %args.addr = alloca ptr, align 8
  %ref.tmp = alloca ptr, align 8
  store ptr %args, ptr %args.addr, align 8
  %call = call noundef zeroext i1 @_ZN6Assimp13DefaultLogger12isNullLoggerEv()
  br i1 %call, label %if.end, label %if.then

if.then:                                          ; preds = %entry
  %call1 = call noundef ptr @_ZN6Assimp13DefaultLogger3getEv()
  %call2 = call noundef ptr @_ZN6Assimp12LogFunctionsINS_11XGLImporterEE6PrefixEv()
  store ptr %call2, ptr %ref.tmp, align 8
  %0 = load ptr, ptr %args.addr, align 8
  call void @_ZN6Assimp6Logger5errorIJPKcRA26_S2_EEEvDpOT_(ptr noundef nonnull align 8 dereferenceable(12) %call1, ptr noundef nonnull align 8 dereferenceable(8) %ref.tmp, ptr noundef nonnull align 1 dereferenceable(26) %0)
  br label %if.end

if.end:                                           ; preds = %if.then, %entry
  ret void
}

; Function Attrs: mustprogress uwtable
define linkonce_odr hidden void @_ZN6Assimp12LogFunctionsINS_11XGLImporterEE8LogErrorIJRA46_KcEEEvDpOT_(ptr noundef nonnull align 1 dereferenceable(46) %args) #2 comdat align 2 {
entry:
  %args.addr = alloca ptr, align 8
  %ref.tmp = alloca ptr, align 8
  store ptr %args, ptr %args.addr, align 8
  %call = call noundef zeroext i1 @_ZN6Assimp13DefaultLogger12isNullLoggerEv()
  br i1 %call, label %if.end, label %if.then

if.then:                                          ; preds = %entry
  %call1 = call noundef ptr @_ZN6Assimp13DefaultLogger3getEv()
  %call2 = call noundef ptr @_ZN6Assimp12LogFunctionsINS_11XGLImporterEE6PrefixEv()
  store ptr %call2, ptr %ref.tmp, align 8
  %0 = load ptr, ptr %args.addr, align 8
  call void @_ZN6Assimp6Logger5errorIJPKcRA46_S2_EEEvDpOT_(ptr noundef nonnull align 8 dereferenceable(12) %call1, ptr noundef nonnull align 8 dereferenceable(8) %ref.tmp, ptr noundef nonnull align 1 dereferenceable(46) %0)
  br label %if.end

if.end:                                           ; preds = %if.then, %entry
  ret void
}

; Function Attrs: mustprogress uwtable
define linkonce_odr hidden noundef zeroext i1 @_ZN6Assimp10SkipSpacesIcEEbPPKT_(ptr noundef %inout) #2 comdat {
entry:
  %inout.addr = alloca ptr, align 8
  store ptr %inout, ptr %inout.addr, align 8
  %0 = load ptr, ptr %inout.addr, align 8
  %1 = load ptr, ptr %0, align 8
  %2 = load ptr, ptr %inout.addr, align 8
  %call = call noundef zeroext i1 @_ZN6Assimp10SkipSpacesIcEEbPKT_PS3_(ptr noundef %1, ptr noundef %2)
  ret i1 %call
}

; Function Attrs: mustprogress uwtable
define hidden noundef float @_ZN6Assimp11XGLImporter9ReadFloatERN4pugi8xml_nodeE(ptr noundef nonnull align 8 dereferenceable(88) %this, ptr noundef nonnull align 8 dereferenceable(8) %node) #2 align 2 personality ptr @__gxx_personality_v0 {
entry:
  %retval = alloca float, align 4
  %this.addr = alloca ptr, align 8
  %node.addr = alloca ptr, align 8
  %v = alloca %"class.std::__cxx11::basic_string", align 8
  %exn.slot = alloca ptr, align 8
  %ehselector.slot = alloca i32, align 4
  %s = alloca ptr, align 8
  %se = alloca ptr, align 8
  %cleanup.dest.slot = alloca i32, align 4
  %t = alloca float, align 4
  store ptr %this, ptr %this.addr, align 8
  store ptr %node, ptr %node.addr, align 8
  call void @_ZNSt7__cxx1112basic_stringIcSt11char_traitsIcESaIcEEC1Ev(ptr noundef nonnull align 8 dereferenceable(32) %v) #5
  %0 = load ptr, ptr %node.addr, align 8
  %call = invoke noundef zeroext i1 @_ZN6Assimp10TXmlParserIN4pugi8xml_nodeEE16getValueAsStringERS2_RNSt7__cxx1112basic_stringIcSt11char_traitsIcESaIcEEE(ptr noundef nonnull align 8 dereferenceable(8) %0, ptr noundef nonnull align 8 dereferenceable(32) %v)
          to label %invoke.cont unwind label %lpad

invoke.cont:                                      ; preds = %entry
  %call2 = call noundef ptr @_ZNKSt7__cxx1112basic_stringIcSt11char_traitsIcESaIcEE5c_strEv(ptr noundef nonnull align 8 dereferenceable(32) %v) #5
  store ptr %call2, ptr %s, align 8
  %call4 = invoke noundef zeroext i1 @_ZN6Assimp10SkipSpacesIcEEbPPKT_(ptr noundef %s)
          to label %invoke.cont3 unwind label %lpad

invoke.cont3:                                     ; preds = %invoke.cont
  br i1 %call4, label %if.end, label %if.then

if.then:                                          ; preds = %invoke.cont3
  invoke void @_ZN6Assimp12LogFunctionsINS_11XGLImporterEE8LogErrorIJRA46_KcEEEvDpOT_(ptr noundef nonnull align 1 dereferenceable(46) @.str.77)
          to label %invoke.cont5 unwind label %lpad

invoke.cont5:                                     ; preds = %if.then
  store float 0.000000e+00, ptr %retval, align 4
  store i32 1, ptr %cleanup.dest.slot, align 4
  br label %cleanup

lpad:                                             ; preds = %if.then8, %if.end, %if.then, %invoke.cont, %entry
  %1 = landingpad { ptr, i32 }
          cleanup
  %2 = extractvalue { ptr, i32 } %1, 0
  store ptr %2, ptr %exn.slot, align 8
  %3 = extractvalue { ptr, i32 } %1, 1
  store i32 %3, ptr %ehselector.slot, align 4
  call void @_ZNSt7__cxx1112basic_stringIcSt11char_traitsIcESaIcEED1Ev(ptr noundef nonnull align 8 dereferenceable(32) %v) #5
  br label %eh.resume

if.end:                                           ; preds = %invoke.cont3
  %4 = load ptr, ptr %s, align 8
  %call7 = invoke noundef ptr @_ZN6Assimp17fast_atoreal_moveIf17DeadlyImportErrorEEPKcS3_RT_b(ptr noundef %4, ptr noundef nonnull align 4 dereferenceable(4) %t, i1 noundef zeroext true)
          to label %invoke.cont6 unwind label %lpad

invoke.cont6:                                     ; preds = %if.end
  store ptr %call7, ptr %se, align 8
  %5 = load ptr, ptr %se, align 8
  %6 = load ptr, ptr %s, align 8
  %cmp = icmp eq ptr %5, %6
  br i1 %cmp, label %if.then8, label %if.end10

if.then8:                                         ; preds = %invoke.cont6
  invoke void @_ZN6Assimp12LogFunctionsINS_11XGLImporterEE8LogErrorIJRA26_KcEEEvDpOT_(ptr noundef nonnull align 1 dereferenceable(26) @.str.78)
          to label %invoke.cont9 unwind label %lpad

invoke.cont9:                                     ; preds = %if.then8
  store float 0.000000e+00, ptr %retval, align 4
  store i32 1, ptr %cleanup.dest.slot, align 4
  br label %cleanup

if.end10:                                         ; preds = %invoke.cont6
  %7 = load float, ptr %t, align 4
  store float %7, ptr %retval, align 4
  store i32 1, ptr %cleanup.dest.slot, align 4
  br label %cleanup

cleanup:                                          ; preds = %if.end10, %invoke.cont9, %invoke.cont5
  call void @_ZNSt7__cxx1112basic_stringIcSt11char_traitsIcESaIcEED1Ev(ptr noundef nonnull align 8 dereferenceable(32) %v) #5
  %8 = load float, ptr %retval, align 4
  ret float %8

eh.resume:                                        ; preds = %lpad
  %exn = load ptr, ptr %exn.slot, align 8
  %sel = load i32, ptr %ehselector.slot, align 4
  %lpad.val = insertvalue { ptr, i32 } poison, ptr %exn, 0
  %lpad.val11 = insertvalue { ptr, i32 } %lpad.val, i32 %sel, 1
  resume { ptr, i32 } %lpad.val11
}