; Function Attrs: mustprogress uwtable
define hidden noundef float @_ZN6Assimp11XGLImporter9ReadFloatERN4pugi8xml_nodeE(ptr nocapture nonnull readnone align 8 %this, ptr noundef nonnull align 8 dereferenceable(8) %node) local_unnamed_addr #6 align 2 personality ptr @__gxx_personality_v0 {
entry:
  %ref.tmp.i3 = alloca ptr, align 8
  %ref.tmp.i = alloca ptr, align 8
  %v = alloca %"class.std::__cxx11::basic_string", align 8
  %t = alloca float, align 4
  call void @_ZNSt7__cxx1112basic_stringIcSt11char_traitsIcESaIcEEC1Ev(ptr noundef nonnull align 8 dereferenceable(32) %v) #24
  %call = invoke noundef zeroext i1 @_ZN6Assimp10TXmlParserIN4pugi8xml_nodeEE16getValueAsStringERS2_RNSt7__cxx1112basic_stringIcSt11char_traitsIcESaIcEEE(ptr noundef nonnull align 8 dereferenceable(8) %node, ptr noundef nonnull align 8 dereferenceable(32) %v)
          to label %invoke.cont unwind label %lpad

invoke.cont:                                      ; preds = %entry
  %call2 = call noundef ptr @_ZNKSt7__cxx1112basic_stringIcSt11char_traitsIcESaIcEE5c_strEv(ptr noundef nonnull align 8 dereferenceable(32) %v) #24
  br label %while.cond.i.i

while.cond.i.i:                                   ; preds = %while.body.i.i, %invoke.cont
  %in.addr.0.i.i = phi ptr [ %call2, %invoke.cont ], [ %incdec.ptr.i.i, %while.body.i.i ]
  %0 = load i8, ptr %in.addr.0.i.i, align 1
  switch i8 %0, label %if.end [
    i8 32, label %while.body.i.i
    i8 9, label %while.body.i.i
    i8 13, label %if.then
    i8 10, label %if.then
    i8 0, label %if.then
    i8 12, label %if.then
  ]

while.body.i.i:                                   ; preds = %while.cond.i.i, %while.cond.i.i
  %incdec.ptr.i.i = getelementptr inbounds i8, ptr %in.addr.0.i.i, i64 1
  br label %while.cond.i.i, !llvm.loop !50

if.then:                                          ; preds = %while.cond.i.i, %while.cond.i.i, %while.cond.i.i, %while.cond.i.i
  call void @llvm.lifetime.start.p0(i64 8, ptr nonnull %ref.tmp.i)
  %call.i1 = invoke noundef zeroext i1 @_ZN6Assimp13DefaultLogger12isNullLoggerEv()
          to label %call.i.noexc unwind label %lpad

call.i.noexc:                                     ; preds = %if.then
  br i1 %call.i1, label %_ZN6Assimp12LogFunctionsINS_11XGLImporterEE8LogErrorIJRA46_KcEEEvDpOT_.exit, label %if.then.i

if.then.i:                                        ; preds = %call.i.noexc
  %call1.i2 = invoke noundef ptr @_ZN6Assimp13DefaultLogger3getEv()
          to label %call1.i.noexc unwind label %lpad

call1.i.noexc:                                    ; preds = %if.then.i
  store ptr @.str, ptr %ref.tmp.i, align 8
  invoke void @_ZN6Assimp6Logger5errorIJPKcRA46_S2_EEEvDpOT_(ptr noundef nonnull align 8 dereferenceable(12) %call1.i2, ptr noundef nonnull align 8 dereferenceable(8) %ref.tmp.i, ptr noundef nonnull align 1 dereferenceable(46) @.str.77)
          to label %_ZN6Assimp12LogFunctionsINS_11XGLImporterEE8LogErrorIJRA46_KcEEEvDpOT_.exit unwind label %lpad

_ZN6Assimp12LogFunctionsINS_11XGLImporterEE8LogErrorIJRA46_KcEEEvDpOT_.exit: ; preds = %call1.i.noexc, %call.i.noexc
  call void @llvm.lifetime.end.p0(i64 8, ptr nonnull %ref.tmp.i)
  br label %cleanup

lpad:                                             ; preds = %call1.i.noexc7, %if.then.i4, %if.then8, %call1.i.noexc, %if.then.i, %if.then, %if.end, %entry
  %1 = landingpad { ptr, i32 }
          cleanup
  call void @_ZNSt7__cxx1112basic_stringIcSt11char_traitsIcESaIcEED1Ev(ptr noundef nonnull align 8 dereferenceable(32) %v) #24
  resume { ptr, i32 } %1

if.end:                                           ; preds = %while.cond.i.i
  %call7 = invoke noundef ptr @_ZN6Assimp17fast_atoreal_moveIf17DeadlyImportErrorEEPKcS3_RT_b(ptr noundef nonnull %in.addr.0.i.i, ptr noundef nonnull align 4 dereferenceable(4) %t, i1 noundef zeroext true)
          to label %invoke.cont6 unwind label %lpad

invoke.cont6:                                     ; preds = %if.end
  %cmp = icmp eq ptr %call7, %in.addr.0.i.i
  br i1 %cmp, label %if.then8, label %if.end10

if.then8:                                         ; preds = %invoke.cont6
  call void @llvm.lifetime.start.p0(i64 8, ptr nonnull %ref.tmp.i3)
  %call.i6 = invoke noundef zeroext i1 @_ZN6Assimp13DefaultLogger12isNullLoggerEv()
          to label %call.i.noexc5 unwind label %lpad

call.i.noexc5:                                    ; preds = %if.then8
  br i1 %call.i6, label %_ZN6Assimp12LogFunctionsINS_11XGLImporterEE8LogErrorIJRA26_KcEEEvDpOT_.exit, label %if.then.i4

if.then.i4:                                       ; preds = %call.i.noexc5
  %call1.i8 = invoke noundef ptr @_ZN6Assimp13DefaultLogger3getEv()
          to label %call1.i.noexc7 unwind label %lpad

call1.i.noexc7:                                   ; preds = %if.then.i4
  store ptr @.str, ptr %ref.tmp.i3, align 8
  invoke void @_ZN6Assimp6Logger5errorIJPKcRA26_S2_EEEvDpOT_(ptr noundef nonnull align 8 dereferenceable(12) %call1.i8, ptr noundef nonnull align 8 dereferenceable(8) %ref.tmp.i3, ptr noundef nonnull align 1 dereferenceable(26) @.str.78)
          to label %_ZN6Assimp12LogFunctionsINS_11XGLImporterEE8LogErrorIJRA26_KcEEEvDpOT_.exit unwind label %lpad

_ZN6Assimp12LogFunctionsINS_11XGLImporterEE8LogErrorIJRA26_KcEEEvDpOT_.exit: ; preds = %call1.i.noexc7, %call.i.noexc5
  call void @llvm.lifetime.end.p0(i64 8, ptr nonnull %ref.tmp.i3)
  br label %cleanup

if.end10:                                         ; preds = %invoke.cont6
  %2 = load float, ptr %t, align 4
  br label %cleanup

cleanup:                                          ; preds = %_ZN6Assimp12LogFunctionsINS_11XGLImporterEE8LogErrorIJRA26_KcEEEvDpOT_.exit, %_ZN6Assimp12LogFunctionsINS_11XGLImporterEE8LogErrorIJRA46_KcEEEvDpOT_.exit, %if.end10
  %retval.0 = phi float [ %2, %if.end10 ], [ 0.000000e+00, %_ZN6Assimp12LogFunctionsINS_11XGLImporterEE8LogErrorIJRA46_KcEEEvDpOT_.exit ], [ 0.000000e+00, %_ZN6Assimp12LogFunctionsINS_11XGLImporterEE8LogErrorIJRA26_KcEEEvDpOT_.exit ]
  call void @_ZNSt7__cxx1112basic_stringIcSt11char_traitsIcESaIcEED1Ev(ptr noundef nonnull align 8 dereferenceable(32) %v) #24
  ret float %retval.0
}